target datalayout = "e-m:e-p270:32:32-p271:32:32-p272:64:64-i64:64-i128:128-f80:128-n8:16:32:64-S128"
target triple = "x86_64-pc-linux-gnu"

%struct.quic_srtm_st = type { ptr, ptr, ptr, i8 }
%struct.srtm_item_st = type { ptr, ptr, ptr, i64, %struct.QUIC_STATELESS_RESET_TOKEN, [16 x i8] }
%struct.QUIC_STATELESS_RESET_TOKEN = type { [16 x i8] }

@.str = private unnamed_addr constant [32 x i8] c"../openssl/ssl/quic/quic_srtm.c\00", align 1

; Function Attrs: inlinehint nounwind uwtable
define internal i32 @lh_SRTM_ITEM_error(ptr noundef %0) #3 {
  %2 = alloca ptr, align 8
  store ptr %0, ptr %2, align 8, !tbaa !29
  %3 = load ptr, ptr %2, align 8, !tbaa !29
  %4 = call i32 @OPENSSL_LH_error(ptr noundef %3)
  ret i32 %4
}

; Function Attrs: inlinehint nounwind uwtable
define internal ptr @lh_SRTM_ITEM_retrieve(ptr noundef %0, ptr noundef %1) #3 {
  %3 = alloca ptr, align 8
  %4 = alloca ptr, align 8
  store ptr %0, ptr %3, align 8, !tbaa !29
  store ptr %1, ptr %4, align 8, !tbaa !22
  %5 = load ptr, ptr %3, align 8, !tbaa !29
  %6 = load ptr, ptr %4, align 8, !tbaa !22
  %7 = call ptr @OPENSSL_LH_retrieve(ptr noundef %5, ptr noundef %6)
  ret ptr %7
}

; Function Attrs: nounwind uwtable
define internal i32 @srtm_remove_from_rev(ptr noundef %0, ptr noundef %1) #0 {
  %3 = alloca i32, align 4
  %4 = alloca ptr, align 8
  %5 = alloca ptr, align 8
  %6 = alloca ptr, align 8
  %7 = alloca i32, align 4
  store ptr %0, ptr %4, align 8, !tbaa !10
  store ptr %1, ptr %5, align 8, !tbaa !22
  call void @llvm.lifetime.start.p0(i64 8, ptr %6) #7
  %8 = load ptr, ptr %4, align 8, !tbaa !10
  %9 = getelementptr inbounds nuw %struct.quic_srtm_st, ptr %8, i32 0, i32 2
  %10 = load ptr, ptr %9, align 8, !tbaa !20
  %11 = load ptr, ptr %5, align 8, !tbaa !22
  %12 = call ptr @lh_SRTM_ITEM_retrieve(ptr noundef %10, ptr noundef %11)
  store ptr %12, ptr %6, align 8, !tbaa !22
  %13 = load ptr, ptr %6, align 8, !tbaa !22
  %14 = load ptr, ptr %5, align 8, !tbaa !22
  %15 = icmp eq ptr %13, %14
  br i1 %15, label %16, label %44

16:                                               ; preds = %2
  %17 = load ptr, ptr %5, align 8, !tbaa !22
  %18 = getelementptr inbounds nuw %struct.srtm_item_st, ptr %17, i32 0, i32 0
  %19 = load ptr, ptr %18, align 8, !tbaa !41
  %20 = icmp ne ptr %19, null
  br i1 %20, label %21, label %37

21:                                               ; preds = %16
  %22 = load ptr, ptr %4, align 8, !tbaa !10
  %23 = getelementptr inbounds nuw %struct.quic_srtm_st, ptr %22, i32 0, i32 2
  %24 = load ptr, ptr %23, align 8, !tbaa !20
  %25 = load ptr, ptr %5, align 8, !tbaa !22
  %26 = getelementptr inbounds nuw %struct.srtm_item_st, ptr %25, i32 0, i32 0
  %27 = load ptr, ptr %26, align 8, !tbaa !41
  %28 = call ptr @lh_SRTM_ITEM_insert(ptr noundef %24, ptr noundef %27)
  %29 = load ptr, ptr %4, align 8, !tbaa !10
  %30 = load ptr, ptr %4, align 8, !tbaa !10
  %31 = getelementptr inbounds nuw %struct.quic_srtm_st, ptr %30, i32 0, i32 2
  %32 = load ptr, ptr %31, align 8, !tbaa !20
  %33 = call i32 @srtm_check_lh(ptr noundef %29, ptr noundef %32)
  %34 = icmp ne i32 %33, 0
  br i1 %34, label %36, label %35

35:                                               ; preds = %21
  store i32 0, ptr %3, align 4
  store i32 1, ptr %7, align 4
  br label %63

36:                                               ; preds = %21
  br label %43

37:                                               ; preds = %16
  %38 = load ptr, ptr %4, align 8, !tbaa !10
  %39 = getelementptr inbounds nuw %struct.quic_srtm_st, ptr %38, i32 0, i32 2
  %40 = load ptr, ptr %39, align 8, !tbaa !20
  %41 = load ptr, ptr %5, align 8, !tbaa !22
  %42 = call ptr @lh_SRTM_ITEM_delete(ptr noundef %40, ptr noundef %41)
  br label %43

43:                                               ; preds = %37, %36
  br label %62

44:                                               ; preds = %2
  br label %45

45:                                               ; preds = %52, %44
  %46 = load ptr, ptr %6, align 8, !tbaa !22
  %47 = getelementptr inbounds nuw %struct.srtm_item_st, ptr %46, i32 0, i32 0
  %48 = load ptr, ptr %47, align 8, !tbaa !41
  %49 = load ptr, ptr %5, align 8, !tbaa !22
  %50 = icmp ne ptr %48, %49
  br i1 %50, label %51, label %56

51:                                               ; preds = %45
  br label %52

52:                                               ; preds = %51
  %53 = load ptr, ptr %6, align 8, !tbaa !22
  %54 = getelementptr inbounds nuw %struct.srtm_item_st, ptr %53, i32 0, i32 0
  %55 = load ptr, ptr %54, align 8, !tbaa !41
  store ptr %55, ptr %6, align 8, !tbaa !22
  br label %45, !llvm.loop !43

56:                                               ; preds = %45
  %57 = load ptr, ptr %5, align 8, !tbaa !22
  %58 = getelementptr inbounds nuw %struct.srtm_item_st, ptr %57, i32 0, i32 0
  %59 = load ptr, ptr %58, align 8, !tbaa !41
  %60 = load ptr, ptr %6, align 8, !tbaa !22
  %61 = getelementptr inbounds nuw %struct.srtm_item_st, ptr %60, i32 0, i32 0
  store ptr %59, ptr %61, align 8, !tbaa !41
  br label %62

62:                                               ; preds = %56, %43
  store i32 1, ptr %3, align 4
  store i32 1, ptr %7, align 4
  br label %63

63:                                               ; preds = %62, %35
  call void @llvm.lifetime.end.p0(i64 8, ptr %6) #7
  %64 = load i32, ptr %3, align 4
  ret i32 %64
}

; Function Attrs: inlinehint nounwind uwtable
define internal ptr @lh_SRTM_ITEM_delete(ptr noundef %0, ptr noundef %1) #3 {
  %3 = alloca ptr, align 8
  %4 = alloca ptr, align 8
  store ptr %0, ptr %3, align 8, !tbaa !29
  store ptr %1, ptr %4, align 8, !tbaa !22
  %5 = load ptr, ptr %3, align 8, !tbaa !29
  %6 = load ptr, ptr %4, align 8, !tbaa !22
  %7 = call ptr @OPENSSL_LH_delete(ptr noundef %5, ptr noundef %6)
  ret ptr %7
}

; Function Attrs: nounwind uwtable
define internal i32 @srtm_check_lh(ptr noundef %0, ptr noundef %1) #0 {
  %3 = alloca i32, align 4
  %4 = alloca ptr, align 8
  %5 = alloca ptr, align 8
  store ptr %0, ptr %4, align 8, !tbaa !10
  store ptr %1, ptr %5, align 8, !tbaa !29
  %6 = load ptr, ptr %5, align 8, !tbaa !29
  %7 = call i32 @lh_SRTM_ITEM_error(ptr noundef %6)
  %8 = icmp ne i32 %7, 0
  br i1 %8, label %9, label %15

9:                                                ; preds = %2
  %10 = load ptr, ptr %4, align 8, !tbaa !10
  %11 = getelementptr inbounds nuw %struct.quic_srtm_st, ptr %10, i32 0, i32 3
  %12 = load i8, ptr %11, align 8
  %13 = and i8 %12, -2
  %14 = or i8 %13, 1
  store i8 %14, ptr %11, align 8
  store i32 0, ptr %3, align 4
  br label %16

15:                                               ; preds = %2
  store i32 1, ptr %3, align 4
  br label %16

16:                                               ; preds = %15, %9
  %17 = load i32, ptr %3, align 4
  ret i32 %17
}

; Function Attrs: inlinehint nounwind uwtable
define internal ptr @lh_SRTM_ITEM_insert(ptr noundef %0, ptr noundef %1) #3 {
  %3 = alloca ptr, align 8
  %4 = alloca ptr, align 8
  store ptr %0, ptr %3, align 8, !tbaa !29
  store ptr %1, ptr %4, align 8, !tbaa !22
  %5 = load ptr, ptr %3, align 8, !tbaa !29
  %6 = load ptr, ptr %4, align 8, !tbaa !22
  %7 = call ptr @OPENSSL_LH_insert(ptr noundef %5, ptr noundef %6)
  ret ptr %7
}

; Function Attrs: nounwind uwtable
define internal ptr @srtm_find(ptr noundef %0, ptr noundef %1, i64 noundef %2, ptr noundef %3, ptr noundef %4) #0 {
  %6 = alloca ptr, align 8
  %7 = alloca ptr, align 8
  %8 = alloca i64, align 8
  %9 = alloca ptr, align 8
  %10 = alloca ptr, align 8
  %11 = alloca %struct.srtm_item_st, align 8
  %12 = alloca ptr, align 8
  %13 = alloca ptr, align 8
  store ptr %0, ptr %6, align 8, !tbaa !10
  store ptr %1, ptr %7, align 8, !tbaa !21
  store i64 %2, ptr %8, align 8, !tbaa !28
  store ptr %3, ptr %9, align 8, !tbaa !36
  store ptr %4, ptr %10, align 8, !tbaa !36
  call void @llvm.lifetime.start.p0(i64 64, ptr %11) #7
  call void @llvm.lifetime.start.p0(i64 8, ptr %12) #7
  store ptr null, ptr %12, align 8, !tbaa !22
  call void @llvm.lifetime.start.p0(i64 8, ptr %13) #7
  store ptr null, ptr %13, align 8, !tbaa !22
  %14 = load ptr, ptr %7, align 8, !tbaa !21
  %15 = getelementptr inbounds nuw %struct.srtm_item_st, ptr %11, i32 0, i32 2
  store ptr %14, ptr %15, align 8, !tbaa !24
  %16 = load ptr, ptr %6, align 8, !tbaa !10
  %17 = getelementptr inbounds nuw %struct.quic_srtm_st, ptr %16, i32 0, i32 1
  %18 = load ptr, ptr %17, align 8, !tbaa !19
  %19 = call ptr @lh_SRTM_ITEM_retrieve(ptr noundef %18, ptr noundef %11)
  store ptr %19, ptr %12, align 8, !tbaa !22
  %20 = load ptr, ptr %9, align 8, !tbaa !36
  %21 = icmp ne ptr %20, null
  br i1 %21, label %22, label %25

22:                                               ; preds = %5
  %23 = load ptr, ptr %12, align 8, !tbaa !22
  %24 = load ptr, ptr %9, align 8, !tbaa !36
  store ptr %23, ptr %24, align 8, !tbaa !22
  br label %25

25:                                               ; preds = %22, %5
  br label %26

26:                                               ; preds = %45, %25
  %27 = load ptr, ptr %12, align 8, !tbaa !22
  %28 = icmp ne ptr %27, null
  br i1 %28, label %29, label %50

29:                                               ; preds = %26
  %30 = load ptr, ptr %12, align 8, !tbaa !22
  %31 = getelementptr inbounds nuw %struct.srtm_item_st, ptr %30, i32 0, i32 3
  %32 = load i64, ptr %31, align 8, !tbaa !33
  %33 = load i64, ptr %8, align 8, !tbaa !28
  %34 = icmp eq i64 %32, %33
  br i1 %34, label %35, label %36

35:                                               ; preds = %29
  br label %50

36:                                               ; preds = %29
  %37 = load ptr, ptr %12, align 8, !tbaa !22
  %38 = getelementptr inbounds nuw %struct.srtm_item_st, ptr %37, i32 0, i32 3
  %39 = load i64, ptr %38, align 8, !tbaa !33
  %40 = load i64, ptr %8, align 8, !tbaa !28
  %41 = icmp ult i64 %39, %40
  br i1 %41, label %42, label %43

42:                                               ; preds = %36
  store ptr null, ptr %12, align 8, !tbaa !22
  br label %50

43:                                               ; preds = %36
  br label %44

44:                                               ; preds = %43
  br label %45

45:                                               ; preds = %44
  %46 = load ptr, ptr %12, align 8, !tbaa !22
  store ptr %46, ptr %13, align 8, !tbaa !22
  %47 = load ptr, ptr %12, align 8, !tbaa !22
  %48 = getelementptr inbounds nuw %struct.srtm_item_st, ptr %47, i32 0, i32 1
  %49 = load ptr, ptr %48, align 8, !tbaa !30
  store ptr %49, ptr %12, align 8, !tbaa !22
  br label %26, !llvm.loop !38

50:                                               ; preds = %42, %35, %26
  %51 = load ptr, ptr %10, align 8, !tbaa !36
  %52 = icmp ne ptr %51, null
  br i1 %52, label %53, label %56

53:                                               ; preds = %50
  %54 = load ptr, ptr %13, align 8, !tbaa !22
  %55 = load ptr, ptr %10, align 8, !tbaa !36
  store ptr %54, ptr %55, align 8, !tbaa !22
  br label %56

56:                                               ; preds = %53, %50
  %57 = load ptr, ptr %12, align 8, !tbaa !22
  call void @llvm.lifetime.end.p0(i64 8, ptr %13) #7
  call void @llvm.lifetime.end.p0(i64 8, ptr %12) #7
  call void @llvm.lifetime.end.p0(i64 64, ptr %11) #7
  ret ptr %57
}

; Function Attrs: nounwind uwtable
define i32 @ossl_quic_srtm_remove(ptr noundef %0, ptr noundef %1, i64 noundef %2) #0 {
  %4 = alloca i32, align 4
  %5 = alloca ptr, align 8
  %6 = alloca ptr, align 8
  %7 = alloca i64, align 8
  %8 = alloca ptr, align 8
  %9 = alloca ptr, align 8
  %10 = alloca i32, align 4
  store ptr %0, ptr %5, align 8, !tbaa !10
  store ptr %1, ptr %6, align 8, !tbaa !21
  store i64 %2, ptr %7, align 8, !tbaa !28
  call void @llvm.lifetime.start.p0(i64 8, ptr %8) #7
  call void @llvm.lifetime.start.p0(i64 8, ptr %9) #7
  store ptr null, ptr %9, align 8, !tbaa !22
  %11 = load ptr, ptr %5, align 8, !tbaa !10
  %12 = getelementptr inbounds nuw %struct.quic_srtm_st, ptr %11, i32 0, i32 3
  %13 = load i8, ptr %12, align 8
  %14 = and i8 %13, 1
  %15 = zext i8 %14 to i32
  %16 = icmp ne i32 %15, 0
  br i1 %16, label %17, label %18

17:                                               ; preds = %3
  store i32 0, ptr %4, align 4
  store i32 1, ptr %10, align 4
  br label %70

18:                                               ; preds = %3
  %19 = load ptr, ptr %5, align 8, !tbaa !10
  %20 = load ptr, ptr %6, align 8, !tbaa !21
  %21 = load i64, ptr %7, align 8, !tbaa !28
  %22 = call ptr @srtm_find(ptr noundef %19, ptr noundef %20, i64 noundef %21, ptr noundef null, ptr noundef %9)
  store ptr %22, ptr %8, align 8, !tbaa !22
  %23 = icmp eq ptr %22, null
  br i1 %23, label %24, label %25

24:                                               ; preds = %18
  store i32 0, ptr %4, align 4
  store i32 1, ptr %10, align 4
  br label %70

25:                                               ; preds = %18
  %26 = load ptr, ptr %9, align 8, !tbaa !22
  %27 = icmp eq ptr %26, null
  br i1 %27, label %28, label %56

28:                                               ; preds = %25
  %29 = load ptr, ptr %8, align 8, !tbaa !22
  %30 = getelementptr inbounds nuw %struct.srtm_item_st, ptr %29, i32 0, i32 1
  %31 = load ptr, ptr %30, align 8, !tbaa !30
  %32 = icmp ne ptr %31, null
  br i1 %32, label %33, label %49

33:                                               ; preds = %28
  %34 = load ptr, ptr %5, align 8, !tbaa !10
  %35 = getelementptr inbounds nuw %struct.quic_srtm_st, ptr %34, i32 0, i32 1
  %36 = load ptr, ptr %35, align 8, !tbaa !19
  %37 = load ptr, ptr %8, align 8, !tbaa !22
  %38 = getelementptr inbounds nuw %struct.srtm_item_st, ptr %37, i32 0, i32 1
  %39 = load ptr, ptr %38, align 8, !tbaa !30
  %40 = call ptr @lh_SRTM_ITEM_insert(ptr noundef %36, ptr noundef %39)
  %41 = load ptr, ptr %5, align 8, !tbaa !10
  %42 = load ptr, ptr %5, align 8, !tbaa !10
  %43 = getelementptr inbounds nuw %struct.quic_srtm_st, ptr %42, i32 0, i32 1
  %44 = load ptr, ptr %43, align 8, !tbaa !19
  %45 = call i32 @srtm_check_lh(ptr noundef %41, ptr noundef %44)
  %46 = icmp ne i32 %45, 0
  br i1 %46, label %48, label %47

47:                                               ; preds = %33
  store i32 0, ptr %4, align 4
  store i32 1, ptr %10, align 4
  br label %70

48:                                               ; preds = %33
  br label %55

49:                                               ; preds = %28
  %50 = load ptr, ptr %5, align 8, !tbaa !10
  %51 = getelementptr inbounds nuw %struct.quic_srtm_st, ptr %50, i32 0, i32 1
  %52 = load ptr, ptr %51, align 8, !tbaa !19
  %53 = load ptr, ptr %8, align 8, !tbaa !22
  %54 = call ptr @lh_SRTM_ITEM_delete(ptr noundef %52, ptr noundef %53)
  br label %55

55:                                               ; preds = %49, %48
  br label %62

56:                                               ; preds = %25
  %57 = load ptr, ptr %8, align 8, !tbaa !22
  %58 = getelementptr inbounds nuw %struct.srtm_item_st, ptr %57, i32 0, i32 1
  %59 = load ptr, ptr %58, align 8, !tbaa !30
  %60 = load ptr, ptr %9, align 8, !tbaa !22
  %61 = getelementptr inbounds nuw %struct.srtm_item_st, ptr %60, i32 0, i32 1
  store ptr %59, ptr %61, align 8, !tbaa !30
  br label %62

62:                                               ; preds = %56, %55
  %63 = load ptr, ptr %5, align 8, !tbaa !10
  %64 = load ptr, ptr %8, align 8, !tbaa !22
  %65 = call i32 @srtm_remove_from_rev(ptr noundef %63, ptr noundef %64)
  %66 = icmp ne i32 %65, 0
  br i1 %66, label %68, label %67

67:                                               ; preds = %62
  store i32 0, ptr %4, align 4
  store i32 1, ptr %10, align 4
  br label %70

68:                                               ; preds = %62
  %69 = load ptr, ptr %8, align 8, !tbaa !22
  call void @CRYPTO_free(ptr noundef %69, ptr noundef @.str, i32 noundef 411)
  store i32 1, ptr %4, align 4
  store i32 1, ptr %10, align 4
  br label %70

70:                                               ; preds = %68, %67, %47, %24, %17
  call void @llvm.lifetime.end.p0(i64 8, ptr %9) #7
  call void @llvm.lifetime.end.p0(i64 8, ptr %8) #7
  %71 = load i32, ptr %4, align 4
  ret i32 %71
}