; Function Attrs: nounwind uwtable
define range(i32 0, 2) i32 @ossl_quic_srtm_remove(ptr noundef captures(none) %0, ptr noundef %1, i64 noundef %2) local_unnamed_addr #0 {
  %4 = alloca %struct.srtm_item_st, align 8
  %5 = getelementptr inbounds nuw i8, ptr %0, i64 24
  %6 = load i8, ptr %5, align 8
  %7 = and i8 %6, 1
  %.not = icmp eq i8 %7, 0
  br i1 %.not, label %8, label %58

8:                                                ; preds = %3
  %9 = getelementptr i8, ptr %0, i64 8
  %.val = load ptr, ptr %9, align 8, !tbaa !11
  call void @llvm.lifetime.start.p0(i64 64, ptr nonnull %4) #9
  %10 = getelementptr inbounds nuw i8, ptr %4, i64 16
  store ptr %1, ptr %10, align 8, !tbaa !13
  %11 = call ptr @OPENSSL_LH_retrieve(ptr noundef %.val, ptr noundef nonnull %4) #9
  %.not201.i = icmp eq ptr %11, null
  br i1 %.not201.i, label %srtm_find.exit.thread, label %.lr.ph.i.preheader

.lr.ph.i.preheader:                               ; preds = %8
  %12 = getelementptr inbounds nuw i8, ptr %11, i64 24
  %13 = load i64, ptr %12, align 8, !tbaa !21
  %14 = icmp eq i64 %13, %2
  br i1 %14, label %23, label %.lr.ph

.lr.ph.i:                                         ; preds = %20
  %15 = getelementptr inbounds nuw i8, ptr %22, i64 24
  %16 = load i64, ptr %15, align 8, !tbaa !21
  %17 = icmp eq i64 %16, %2
  br i1 %17, label %35, label %.lr.ph, !llvm.loop !22

.lr.ph:                                           ; preds = %.lr.ph.i.preheader, %.lr.ph.i
  %18 = phi i64 [ %16, %.lr.ph.i ], [ %13, %.lr.ph.i.preheader ]
  %.0152.i31 = phi ptr [ %22, %.lr.ph.i ], [ %11, %.lr.ph.i.preheader ]
  %19 = icmp ult i64 %18, %2
  br i1 %19, label %srtm_find.exit.thread, label %20

20:                                               ; preds = %.lr.ph
  %21 = getelementptr inbounds nuw i8, ptr %.0152.i31, i64 8
  %22 = load ptr, ptr %21, align 8, !tbaa !18
  %.not20.i = icmp eq ptr %22, null
  br i1 %.not20.i, label %srtm_find.exit.thread, label %.lr.ph.i, !llvm.loop !22

srtm_find.exit.thread:                            ; preds = %.lr.ph, %20, %8
  call void @llvm.lifetime.end.p0(i64 64, ptr nonnull %4) #9
  br label %58

23:                                               ; preds = %.lr.ph.i.preheader
  call void @llvm.lifetime.end.p0(i64 64, ptr nonnull %4) #9
  %24 = getelementptr inbounds nuw i8, ptr %11, i64 8
  %25 = load ptr, ptr %24, align 8, !tbaa !18
  %.not18 = icmp eq ptr %25, null
  %26 = load ptr, ptr %9, align 8, !tbaa !11
  br i1 %.not18, label %33, label %27

27:                                               ; preds = %23
  %28 = call ptr @OPENSSL_LH_insert(ptr noundef %26, ptr noundef nonnull %25) #9
  %29 = load ptr, ptr %9, align 8, !tbaa !11
  %30 = call i32 @OPENSSL_LH_error(ptr noundef %29) #9
  %.not.i = icmp eq i32 %30, 0
  br i1 %.not.i, label %srtm_check_lh.exit, label %srtm_check_lh.exit.thread

srtm_check_lh.exit.thread:                        ; preds = %27
  %31 = load i8, ptr %5, align 8
  %32 = or i8 %31, 1
  store i8 %32, ptr %5, align 8
  br label %58

33:                                               ; preds = %23
  %34 = call ptr @OPENSSL_LH_delete(ptr noundef %26, ptr noundef nonnull %11) #9
  br label %srtm_check_lh.exit

35:                                               ; preds = %.lr.ph.i
  call void @llvm.lifetime.end.p0(i64 64, ptr nonnull %4) #9
  %36 = getelementptr inbounds nuw i8, ptr %22, i64 8
  %37 = load ptr, ptr %36, align 8, !tbaa !18
  %38 = getelementptr inbounds nuw i8, ptr %.0152.i31, i64 8
  store ptr %37, ptr %38, align 8, !tbaa !18
  br label %srtm_check_lh.exit

srtm_check_lh.exit:                               ; preds = %27, %33, %35
  %.0152.i.lcssa36 = phi ptr [ %11, %27 ], [ %11, %33 ], [ %22, %35 ]
  %39 = getelementptr inbounds nuw i8, ptr %0, i64 16
  %40 = load ptr, ptr %39, align 8, !tbaa !12
  %41 = call ptr @OPENSSL_LH_retrieve(ptr noundef %40, ptr noundef nonnull %.0152.i.lcssa36) #9
  %42 = icmp eq ptr %41, %.0152.i.lcssa36
  br i1 %42, label %43, label %.preheader.i

43:                                               ; preds = %srtm_check_lh.exit
  %44 = load ptr, ptr %.0152.i.lcssa36, align 8, !tbaa !29
  %.not21.i = icmp eq ptr %44, null
  %45 = load ptr, ptr %39, align 8, !tbaa !12
  br i1 %.not21.i, label %50, label %46

46:                                               ; preds = %43
  %47 = call ptr @OPENSSL_LH_insert(ptr noundef %45, ptr noundef nonnull %44) #9
  %48 = load ptr, ptr %39, align 8, !tbaa !12
  %49 = call i32 @OPENSSL_LH_error(ptr noundef %48) #9
  %.not.i.i = icmp eq i32 %49, 0
  br i1 %.not.i.i, label %57, label %srtm_remove_from_rev.exit

50:                                               ; preds = %43
  %51 = call ptr @OPENSSL_LH_delete(ptr noundef %45, ptr noundef nonnull %.0152.i.lcssa36) #9
  br label %57

.preheader.i:                                     ; preds = %srtm_check_lh.exit, %.preheader.i
  %.0.i21 = phi ptr [ %52, %.preheader.i ], [ %41, %srtm_check_lh.exit ]
  %52 = load ptr, ptr %.0.i21, align 8, !tbaa !29
  %.not.i22 = icmp eq ptr %52, %.0152.i.lcssa36
  br i1 %.not.i22, label %53, label %.preheader.i, !llvm.loop !30

53:                                               ; preds = %.preheader.i
  %54 = load ptr, ptr %.0152.i.lcssa36, align 8, !tbaa !29
  store ptr %54, ptr %.0.i21, align 8, !tbaa !29
  br label %57

srtm_remove_from_rev.exit:                        ; preds = %46
  %55 = load i8, ptr %5, align 8
  %56 = or i8 %55, 1
  store i8 %56, ptr %5, align 8
  br label %58

57:                                               ; preds = %46, %50, %53
  call void @CRYPTO_free(ptr noundef nonnull %.0152.i.lcssa36, ptr noundef nonnull @.str, i32 noundef 411) #9
  br label %58

58:                                               ; preds = %srtm_remove_from_rev.exit, %srtm_check_lh.exit.thread, %srtm_find.exit.thread, %3, %57
  %.0 = phi i32 [ 1, %57 ], [ 0, %3 ], [ 0, %srtm_remove_from_rev.exit ], [ 0, %srtm_find.exit.thread ], [ 0, %srtm_check_lh.exit.thread ]
  ret i32 %.0
}